((lp1
((dp2
S'exp_id'
p3
S'size4-g1_0th_try'
p4
sS'stats'
p5
ccollections
defaultdict
p6
(c__builtin__
list
p7
tRp8
S'win_min'
p9
(lp10
cnumpy.core.multiarray
scalar
p11
(cnumpy
dtype
p12
(S'f8'
I0
I1
tRp13
(I3
S'<'
NNNI-1
I-1
I0
tbS'\x00\x00\x00\x00\x00\x00\x00\x00'
tRp14
asS'fitness_max'
p15
(lp16
g11
(g13
S'\x00\x00\x00\x00\x00\x00I\xc0'
tRp17
asS'score_min'
p18
(lp19
g11
(g13
S'\x00\x00\x00\x00\x00\x00I\xc0'
tRp20
asS'win_avg'
p21
(lp22
g11
(g13
S'\x00\x00\x00\x00\x00\x00\x00\x00'
tRp23
asS'solved'
p24
(lp25
I00
asS'score_avg'
p26
(lp27
g11
(g13
S'\x00\x00\x00\x00\x00\x00I\xc0'
tRp28
asS'fitness_min'
p29
(lp30
g11
(g13
S'\x00\x00\x00\x00\x00\x00I\xc0'
tRp31
asS'fitness_avg'
p32
(lp33
g11
(g13
S'\x00\x00\x00\x00\x00\x00I\xc0'
tRp34
asS'score_max'
p35
(lp36
g11
(g13
S'\x00\x00\x00\x00\x00\x00I\xc0'
tRp37
asS'win_max'
p38
(lp39
g11
(g13
S'\x00\x00\x00\x00\x00\x00\x00\x00'
tRp40
assS'champions'
p41
(lp42
ccopy_reg
_reconstructor
p43
(cpeas.methods.neat
NEATGenotype
p44
c__builtin__
object
p45
NtRp46
(dp47
S'bias_as_node'
p48
I00
sS'stdev_mutate_response'
p49
F0.5
sS'feedforward'
p50
I01
sS'prob_add_node'
p51
F0.029999999999999999
sS'weight_range'
p52
(F-50
F50
tp53
sg5
(dp54
S'win'
p55
F0
sS'score'
p56
F-50
sS'fitness'
p57
F-50
ssS'distance_disjoint'
p58
F1
sS'conn_genes'
p59
(dp60
(I63
I102
tp61
(lp62
I254
aI63
aI102
aF0.65700766628993768
aI01
as(I98
I102
tp63
(lp64
I394
aI98
aI102
aF-1.0397779715814923
aI01
as(I70
I103
tp65
(lp66
I283
aI70
aI103
aF-1.7609252474779704
aI01
as(I82
I101
tp67
(lp68
I329
aI82
aI101
aF2.5841770383549965
aI01
as(I95
I101
tp69
(lp70
I381
aI95
aI101
aF2.7849587835046852
aI01
as(I76
I100
tp71
(lp72
I304
aI76
aI100
aF1.37982550122249
aI01
as(I56
I101
tp73
(lp74
I225
aI56
aI101
aF1.4507866238674219
aI01
as(I33
I101
tp75
(lp76
I133
aI33
aI101
aF2.2573761291322083
aI01
as(I58
I103
tp77
(lp78
I235
aI58
aI103
aF1.4111882846018298
aI01
as(I30
I100
tp79
(lp80
I120
aI30
aI100
aF-0.76050528917388749
aI01
as(I55
I100
tp81
(lp82
I220
aI55
aI100
aF3.1691703016288781
aI01
as(I11
I103
tp83
(lp84
I47
aI11
aI103
aF-0.17166739394935462
aI01
as(I36
I101
tp85
(lp86
I145
aI36
aI101
aF1.0677504750823272
aI01
as(I13
I101
tp87
(lp88
I53
aI13
aI101
aF7.0085358188964797
aI01
as(I71
I100
tp89
(lp90
I284
aI71
aI100
aF3.197343231820859
aI01
as(I99
I103
tp91
(lp92
I399
aI99
aI103
aF-0.71040665503659595
aI01
as(I25
I103
tp93
(lp94
I103
aI25
aI103
aF5.5399082088502896
aI01
as(I15
I103
tp95
(lp96
I63
aI15
aI103
aF-0.51904630987147427
aI01
as(I22
I102
tp97
(lp98
I90
aI22
aI102
aF2.3368433718035382
aI01
as(I6
I101
tp99
(lp100
I25
aI6
aI101
aF-2.0224044309205733
aI01
as(I3
I101
tp101
(lp102
I13
aI3
aI101
aF0.35983955262147921
aI01
as(I31
I103
tp103
(lp104
I127
aI31
aI103
aF1.5956433230795524
aI01
as(I78
I101
tp105
(lp106
I313
aI78
aI101
aF-1.7000405597752091
aI01
as(I5
I103
tp107
(lp108
I23
aI5
aI103
aF-2.3001567939528331
aI01
as(I12
I102
tp109
(lp110
I50
aI12
aI102
aF4.013486042751258
aI01
as(I59
I102
tp111
(lp112
I238
aI59
aI102
aF-0.98094276800104552
aI01
as(I84
I102
tp113
(lp114
I338
aI84
aI102
aF-1.2550641187780971
aI01
as(I94
I101
tp115
(lp116
I377
aI94
aI101
aF0.55897562341059326
aI01
as(I91
I101
tp117
(lp118
I365
aI91
aI101
aF0.28121493315254886
aI01
as(I61
I100
tp119
(lp120
I244
aI61
aI100
aF0.26146184086553675
aI01
as(I75
I102
tp121
(lp122
I302
aI75
aI102
aF0.68243511534474344
aI01
as(I72
I100
tp123
(lp124
I288
aI72
aI100
aF-2.2484953979185485
aI01
as(I93
I103
tp125
(lp126
I375
aI93
aI103
aF-4.0677269844791519
aI01
as(I49
I102
tp127
(lp128
I198
aI49
aI102
aF2.5853952859053808
aI01
as(I77
I100
tp129
(lp130
I308
aI77
aI100
aF0.78875640305844419
aI01
as(I74
I102
tp131
(lp132
I298
aI74
aI102
aF-1.9667319976411155
aI01
as(I4
I100
tp133
(lp134
I16
aI4
aI100
aF1.1357707013356728
aI01
as(I51
I100
tp135
(lp136
I204
aI51
aI100
aF1.9872762728370825
aI01
as(I79
I102
tp137
(lp138
I318
aI79
aI102
aF-1.2615776923839683
aI01
as(I32
I101
tp139
(lp140
I129
aI32
aI101
aF0.86867639082662673
aI01
as(I53
I102
tp141
(lp142
I214
aI53
aI102
aF-0.17598185522950247
aI01
as(I9
I101
tp143
(lp144
I37
aI9
aI101
aF-3.686449315820481
aI01
as(I60
I103
tp145
(lp146
I243
aI60
aI103
aF-0.18586415158399258
aI01
as(I67
I100
tp147
(lp148
I268
aI67
aI100
aF-0.47809117743481733
aI01
as(I34
I103
tp149
(lp150
I139
aI34
aI103
aF-1.2737301064131576
aI01
as(I92
I100
tp151
(lp152
I368
aI92
aI100
aF-1.1621950894485791
aI01
as(I48
I101
tp153
(lp154
I193
aI48
aI101
aF-2.1279820210720248
aI01
as(I69
I102
tp155
(lp156
I278
aI69
aI102
aF4.8737921112696094
aI01
as(I50
I103
tp157
(lp158
I203
aI50
aI103
aF-1.6127684469102848
aI01
as(I97
I101
tp159
(lp160
I389
aI97
aI101
aF-1.1877528688666901
aI01
as(I27
I103
tp161
(lp162
I111
aI27
aI103
aF0.3380358965294224
aI01
as(I1
I103
tp163
(lp164
I7
aI1
aI103
aF0.58140462898066292
aI01
as(I52
I101
tp165
(lp166
I209
aI52
aI101
aF-0.96676416316633873
aI01
as(I8
I102
tp167
(lp168
I34
aI8
aI102
aF-0.22167305199885914
aI01
as(I29
I101
tp169
(lp170
I117
aI29
aI101
aF2.2902015394636446
aI01
as(I10
I100
tp171
(lp172
I40
aI10
aI100
aF1.2546345454140659
aI01
as(I57
I100
tp173
(lp174
I228
aI57
aI100
aF4.7251620971318955
aI01
as(I17
I103
tp175
(lp176
I71
aI17
aI103
aF1.0135597696238448
aI01
as(I7
I103
tp177
(lp178
I31
aI7
aI103
aF-1.6119612903790594
aI01
as(I89
I103
tp179
(lp180
I359
aI89
aI103
aF-3.1567857291880221
aI01
as(I96
I102
tp181
(lp182
I386
aI96
aI102
aF0.16946579523687785
aI01
as(I73
I100
tp183
(lp184
I292
aI73
aI100
aF-3.3211947119034355
aI01
as(I86
I102
tp185
(lp186
I346
aI86
aI102
aF-2.1345980898461319
aI01
as(I98
I100
tp187
(lp188
I392
aI98
aI100
aF-0.080809292808041638
aI01
as(I70
I101
tp189
(lp190
I281
aI70
aI101
aF1.1211419353133947
aI01
as(I95
I103
tp191
(lp192
I383
aI95
aI103
aF-3.4198088310370887
aI01
as(I76
I102
tp193
(lp194
I306
aI76
aI102
aF-0.68963856944761126
aI01
as(I0
I100
tp195
(lp196
I0
aI0
aI100
aF-1.10164387972486
aI01
as(I2
I102
tp197
(lp198
I10
aI2
aI102
aF-0.98508908445465615
aI01
as(I56
I103
tp199
(lp200
I227
aI56
aI103
aF1.0011711833586308
aI01
as(I46
I103
tp201
(lp202
I187
aI46
aI103
aF-1.3897362558285451
aI01
as(I88
I100
tp203
(lp204
I352
aI88
aI100
aF-0.1640649309236368
aI01
as(I58
I101
tp205
(lp206
I233
aI58
aI101
aF-4.1800289317118384
aI01
as(I65
I102
tp207
(lp208
I262
aI65
aI102
aF-0.02998104520095762
aI01
as(I55
I102
tp209
(lp210
I222
aI55
aI102
aF0.66411965638523618
aI01
as(I90
I102
tp211
(lp212
I362
aI90
aI102
aF0.31327016875161534
aI01
as(I62
I103
tp213
(lp214
I251
aI62
aI103
aF3.2234814146526074
aI01
as(I36
I103
tp215
(lp216
I147
aI36
aI103
aF-1.2872466383089429
aI01
as(I87
I101
tp217
(lp218
I349
aI87
aI101
aF3.1422497420832656
aI01
as(I43
I100
tp219
(lp220
I172
aI43
aI100
aF-1.3822504884948956
aI01
as(I71
I102
tp221
(lp222
I286
aI71
aI102
aF1.9482933997150569
aI01
as(I68
I100
tp223
(lp224
I272
aI68
aI100
aF1.5266939962358717
aI01
as(I45
I102
tp225
(lp226
I182
aI45
aI102
aF-1.8700933749765871
aI01
as(I25
I101
tp227
(lp228
I101
aI25
aI101
aF0.14741348911386082
aI01
as(I22
I100
tp229
(lp230
I88
aI22
aI100
aF-0.10351334392413791
aI01
as(I47
I100
tp231
(lp232
I188
aI47
aI100
aF1.0518409046575399
aI01
as(I3
I103
tp233
(lp234
I15
aI3
aI103
aF-0.061098062834019293
aI01
as(I28
I101
tp235
(lp236
I113
aI28
aI101
aF-2.5007424671945317
aI01
as(I5
I101
tp237
(lp238
I21
aI5
aI101
aF2.2247967714748516
aI01
as(I44
I101
tp239
(lp240
I177
aI44
aI101
aF0.039026977130779246
aI01
as(I91
I103
tp241
(lp242
I367
aI91
aI103
aF-0.043387040678957586
aI01
as(I72
I102
tp243
(lp244
I290
aI72
aI102
aF-0.28705941964043175
aI01
as(I93
I101
tp245
(lp246
I373
aI93
aI101
aF1.3833234691262011
aI01
as(I49
I100
tp247
(lp248
I196
aI49
aI100
aF1.5622465757883142
aI01
as(I74
I100
tp249
(lp250
I296
aI74
aI100
aF-2.4250451773506079
aI01
as(I81
I103
tp251
(lp252
I327
aI81
aI103
aF-0.39824271944334316
aI01
as(I14
I102
tp253
(lp254
I58
aI14
aI102
aF0.45284008578023932
aI01
as(I4
I102
tp255
(lp256
I18
aI4
aI102
aF2.4468944821115466
aI01
as(I51
I102
tp257
(lp258
I206
aI51
aI102
aF5.4091626848389627
aI01
as(I32
I103
tp259
(lp260
I131
aI32
aI103
aF3.1756843484612904
aI01
as(I83
I101
tp261
(lp262
I333
aI83
aI101
aF2.9396701797127101
aI01
as(I53
I100
tp263
(lp264
I212
aI53
aI100
aF1.6915860750579024
aI01
as(I67
I102
tp265
(lp266
I270
aI67
aI102
aF-3.0869757649057883
aI01
as(I64
I100
tp267
(lp268
I256
aI64
aI100
aF0.51348513585096556
aI01
as(I34
I101
tp269
(lp270
I137
aI34
aI101
aF-1.7733235504300513
aI01
as(I85
I103
tp271
(lp272
I343
aI85
aI103
aF1.3031610042805879
aI01
as(I41
I102
tp273
(lp274
I166
aI41
aI102
aF-2.4517355563185141
aI01
as(I92
I102
tp275
(lp276
I370
aI92
aI102
aF-1.489002383433969
aI01
as(I48
I103
tp277
(lp278
I195
aI48
aI103
aF0.87110467487667964
aI01
as(I69
I100
tp279
(lp280
I276
aI69
aI100
aF-3.991912340400054
aI01
as(I66
I102
tp281
(lp282
I266
aI66
aI102
aF-1.7793677811406203
aI01
as(I38
I103
tp283
(lp284
I155
aI38
aI103
aF-0.33329637695892861
aI01
as(I80
I100
tp285
(lp286
I320
aI80
aI100
aF-0.36189949529438303
aI01
as(I50
I101
tp287
(lp288
I201
aI50
aI101
aF-3.0525950658298915
aI01
as(I63
I101
tp289
(lp290
I253
aI63
aI101
aF-1.3752111247750829
aI01
as(I82
I102
tp291
(lp292
I330
aI82
aI102
aF-0.088922587621511215
aI01
as(I24
I101
tp293
(lp294
I97
aI24
aI101
aF-0.16824777250716455
aI01
as(I1
I101
tp295
(lp296
I5
aI1
aI101
aF-1.0961543338983661
aI01
as(I52
I103
tp297
(lp298
I211
aI52
aI103
aF-0.60089615141103092
aI01
as(I26
I103
tp299
(lp300
I107
aI26
aI103
aF-1.2004910839766627
aI01
as(I40
I101
tp301
(lp302
I161
aI40
aI101
aF-2.5361218782125241
aI01
as(I23
I100
tp303
(lp304
I92
aI23
aI100
aF-2.3679024411135696
aI01
as(I17
I101
tp305
(lp306
I69
aI17
aI101
aF0.59435397751287133
aI01
as(I42
I103
tp307
(lp308
I171
aI42
aI103
aF1.2032087710694135
aI01
as(I89
I101
tp309
(lp310
I357
aI89
aI101
aF2.1219691072422671
aI01
as(I39
I100
tp311
(lp312
I156
aI39
aI100
aF0.10259714369399472
aI01
as(I86
I100
tp313
(lp314
I344
aI86
aI100
aF-4.3303508360962395
aI01
as(I0
I102
tp315
(lp316
I2
aI0
aI102
aF1.3936888188008456
aI01
as(I2
I100
tp317
(lp318
I8
aI2
aI100
aF2.6011968926883555
aI01
as(I46
I101
tp319
(lp320
I185
aI46
aI101
aF1.8040604827176845
aI01
as(I6
I102
tp321
(lp322
I26
aI6
aI102
aF-0.31293040468253036
aI01
as(I88
I102
tp323
(lp324
I354
aI88
aI102
aF-0.21196901138347454
aI01
as(I65
I100
tp325
(lp326
I260
aI65
aI100
aF0.42711764550878861
aI01
as(I78
I102
tp327
(lp328
I314
aI78
aI102
aF1.2766432018318337
aI01
as(I90
I100
tp329
(lp330
I360
aI90
aI100
aF4.4072634837172178
aI01
as(I62
I101
tp331
(lp332
I249
aI62
aI101
aF-2.6310508410516436
aI01
as(I59
I101
tp333
(lp334
I237
aI59
aI101
aF-1.3110674546792158
aI01
as(I87
I103
tp335
(lp336
I351
aI87
aI103
aF2.0720625724179063
aI01
as(I43
I102
tp337
(lp338
I174
aI43
aI102
aF-0.98715888067680058
aI01
as(I94
I102
tp339
(lp340
I378
aI94
aI102
aF1.6297002871229886
aI01
as(I61
I103
tp341
(lp342
I247
aI61
aI103
aF-0.86437390695062444
aI01
as(I68
I102
tp343
(lp344
I274
aI68
aI102
aF-1.0068427917588965
aI01
as(I75
I101
tp345
(lp346
I301
aI75
aI101
aF0.099417278858496771
aI01
as(I45
I100
tp347
(lp348
I180
aI45
aI100
aF1.360954271337153
aI01
as(I77
I103
tp349
(lp350
I311
aI77
aI103
aF-0.27189350990859007
aI01
as(I19
I100
tp351
(lp352
I76
aI19
aI100
aF-1.0655941731652547
aI01
as(I47
I102
tp353
(lp354
I190
aI47
aI102
aF0.50727739224132007
aI01
as(I54
I103
tp355
(lp356
I219
aI54
aI103
aF-1.2863550730679201
aI01
as(I21
I102
tp357
(lp358
I86
aI21
aI102
aF-0.62406083102208476
aI01
as(I28
I103
tp359
(lp360
I115
aI28
aI103
aF-1.5825776896822807
aI01
as(I79
I101
tp361
(lp362
I317
aI79
aI101
aF-0.76454134538393337
aI01
as(I35
I100
tp363
(lp364
I140
aI35
aI100
aF3.5982450947078637
aI01
as(I60
I100
tp365
(lp366
I240
aI60
aI100
aF2.4923983561526089
aI01
as(I16
I101
tp367
(lp368
I65
aI16
aI101
aF1.2892243054565216
aI01
as(I37
I102
tp369
(lp370
I150
aI37
aI102
aF-1.7162033536074486
aI01
as(I44
I103
tp371
(lp372
I179
aI44
aI103
aF1.3792247857332272
aI01
as(I18
I103
tp373
(lp374
I75
aI18
aI103
aF0.95781820468971124
aI01
as(I81
I101
tp375
(lp376
I325
aI81
aI101
aF3.524189651882156
aI01
as(I14
I100
tp377
(lp378
I56
aI14
aI100
aF3.1473772958547142
aI01
as(I20
I101
tp379
(lp380
I81
aI20
aI101
aF1.1438611204487314
aI01
as(I83
I103
tp381
(lp382
I335
aI83
aI103
aF-3.3995482014299347
aI01
as(I57
I103
tp383
(lp384
I231
aI57
aI103
aF-4.7629165485134823
aI01
as(I64
I102
tp385
(lp386
I258
aI64
aI102
aF1.1737566717585965
aI01
as(I85
I101
tp387
(lp388
I341
aI85
aI101
aF-1.9056272461563892
aI01
as(I41
I100
tp389
(lp390
I164
aI41
aI100
aF-0.45068458710461667
aI01
as(I66
I100
tp391
(lp392
I264
aI66
aI100
aF0.70045429031892326
aI01
as(I38
I101
tp393
(lp394
I153
aI38
aI101
aF-2.4197365015885448
aI01
as(I73
I103
tp395
(lp396
I295
aI73
aI103
aF0.74884160733539173
aI01
as(I80
I102
tp397
(lp398
I322
aI80
aI102
aF1.2101538451556457
aI01
as(I63
I103
tp399
(lp400
I255
aI63
aI103
aF-0.33919481927508616
aI01
as(I70
I102
tp401
(lp402
I282
aI70
aI102
aF1.2986859617293218
aI01
as(I82
I100
tp403
(lp404
I328
aI82
aI100
aF-0.90325819777150584
aI01
as(I24
I103
tp405
(lp406
I99
aI24
aI103
aF1.3437841945117224
aI01
as(I56
I100
tp407
(lp408
I224
aI56
aI100
aF-0.34133423139763419
aI01
as(I26
I101
tp409
(lp410
I105
aI26
aI101
aF1.3757883375814455
aI01
as(I33
I102
tp411
(lp412
I134
aI33
aI102
aF-1.9787883567379549
aI01
as(I40
I103
tp413
(lp414
I163
aI40
aI103
aF-0.80876679529440187
aI01
as(I23
I102
tp415
(lp416
I94
aI23
aI102
aF3.1145806679349319
aI01
as(I58
I102
tp417
(lp418
I234
aI58
aI102
aF-0.18164129030947429
aI01
as(I30
I103
tp419
(lp420
I123
aI30
aI103
aF4.6828801623217071
aI01
as(I42
I101
tp421
(lp422
I169
aI42
aI101
aF1.8405160731901855
aI01
as(I55
I101
tp423
(lp424
I221
aI55
aI101
aF0.51496922718450178
aI01
as(I11
I100
tp425
(lp426
I44
aI11
aI100
aF2.6457902007422809
aI01
as(I39
I102
tp427
(lp428
I158
aI39
aI102
aF3.8041655609983374
aI01
as(I36
I100
tp429
(lp430
I144
aI36
aI100
aF1.737927699154914
aI01
as(I13
I102
tp431
(lp432
I54
aI13
aI102
aF2.0796684035833177
aI01
as(I71
I101
tp433
(lp434
I285
aI71
aI101
aF1.495960493510081
aI01
as(I99
I100
tp435
(lp436
I396
aI99
aI100
aF3.6809133273897614
aI01
as(I15
I100
tp437
(lp438
I60
aI15
aI100
aF-1.0104756969549116
aI01
as(I6
I100
tp439
(lp440
I24
aI6
aI100
aF-0.84855848821202595
aI01
as(I31
I100
tp441
(lp442
I124
aI31
aI100
aF-1.3129702162333452
aI01
as(I78
I100
tp443
(lp444
I312
aI78
aI100
aF-1.2253513818713313
aI01
as(I12
I101
tp445
(lp446
I49
aI12
aI101
aF0.48772635294424393
aI01
as(I59
I103
tp447
(lp448
I239
aI59
aI103
aF-0.3736714327433997
aI01
as(I84
I101
tp449
(lp450
I337
aI84
aI101
aF0.49772735670755852
aI01
as(I94
I100
tp451
(lp452
I376
aI94
aI100
aF0.59543357751081216
aI01
as(I61
I101
tp453
(lp454
I245
aI61
aI101
aF5.9267902748313936
aI01
as(I75
I103
tp455
(lp456
I303
aI75
aI103
aF-1.3526550226283893
aI01
as(I49
I103
tp457
(lp458
I199
aI49
aI103
aF0.78359009951090242
aI01
as(I77
I101
tp459
(lp460
I309
aI77
aI101
aF1.6696329635364666
aI01
as(I19
I102
tp461
(lp462
I78
aI19
aI102
aF1.225187065536812
aI01
as(I54
I101
tp463
(lp464
I217
aI54
aI101
aF1.5434309508480792
aI01
as(I51
I101
tp465
(lp466
I205
aI51
aI101
aF-2.8047423600603194
aI01
as(I21
I100
tp467
(lp468
I84
aI21
aI100
aF-0.57839030093944555
aI01
as(I79
I103
tp469
(lp470
I319
aI79
aI103
aF-0.19813831060872458
aI01
as(I35
I102
tp471
(lp472
I142
aI35
aI102
aF0.46088481669504605
aI01
as(I32
I100
tp473
(lp474
I128
aI32
aI100
aF3.070562486046339
aI01
as(I53
I103
tp475
(lp476
I215
aI53
aI103
aF1.2890871799775407
aI01
as(I9
I102
tp477
(lp478
I38
aI9
aI102
aF0.12630553286408794
aI01
as(I60
I102
tp479
(lp480
I242
aI60
aI102
aF0.91348718413335117
aI01
as(I16
I103
tp481
(lp482
I67
aI16
aI103
aF-3.6957285069016783
aI01
as(I67
I101
tp483
(lp484
I269
aI67
aI101
aF-0.33798576260059077
aI01
as(I37
I100
tp485
(lp486
I148
aI37
aI100
aF2.5096596971520526
aI01
as(I34
I102
tp487
(lp488
I138
aI34
aI102
aF0.44368972888949204
aI01
as(I48
I100
tp489
(lp490
I192
aI48
aI100
aF-2.488366252239762
aI01
as(I18
I101
tp491
(lp492
I73
aI18
aI101
aF1.1364628574317885
aI01
as(I69
I103
tp493
(lp494
I279
aI69
aI103
aF0.19226074401210075
aI01
as(I50
I102
tp495
(lp496
I202
aI50
aI102
aF3.6649954097781237
aI01
as(I97
I102
tp497
(lp498
I390
aI97
aI102
aF0.92248521437654407
aI01
as(I20
I103
tp499
(lp500
I83
aI20
aI103
aF-3.7928526926420316
aI01
as(I27
I100
tp501
(lp502
I108
aI27
aI100
aF-1.6545840797590969
aI01
as(I52
I100
tp503
(lp504
I208
aI52
aI100
aF-5.866833953820735
aI01
as(I8
I101
tp505
(lp506
I33
aI8
aI101
aF4.2550345625078441
aI01
as(I29
I102
tp507
(lp508
I118
aI29
aI102
aF-1.6437511150421564
aI01
as(I10
I103
tp509
(lp510
I43
aI10
aI103
aF1.0373653438784718
aI01
as(I57
I101
tp511
(lp512
I229
aI57
aI101
aF0.48006265093209061
aI01
as(I7
I100
tp513
(lp514
I28
aI7
aI100
aF-0.034258598252462517
aI01
as(I96
I101
tp515
(lp516
I385
aI96
aI101
aF3.2333314708296381
aI01
as(I73
I101
tp517
(lp518
I293
aI73
aI101
aF3.7520602376753538
aI01
as(I98
I103
tp519
(lp520
I395
aI98
aI103
aF0.027904644352995812
aI01
as(I70
I100
tp521
(lp522
I280
aI70
aI100
aF0.9183733768131096
aI01
as(I95
I100
tp523
(lp524
I380
aI95
aI100
aF1.0395784179168825
aI01
as(I76
I101
tp525
(lp526
I305
aI76
aI101
aF-1.6513538864843453
aI01
as(I56
I102
tp527
(lp528
I226
aI56
aI102
aF0.25477794992525754
aI01
as(I33
I100
tp529
(lp530
I132
aI33
aI100
aF-0.081936169261214692
aI01
as(I46
I102
tp531
(lp532
I186
aI46
aI102
aF1.6591394912205506
aI01
as(I58
I100
tp533
(lp534
I232
aI58
aI100
aF-0.063992728032685423
aI01
as(I30
I101
tp535
(lp536
I121
aI30
aI101
aF-2.5819835536697853
aI01
as(I65
I103
tp537
(lp538
I263
aI65
aI103
aF-0.6460462584073452
aI01
as(I55
I103
tp539
(lp540
I223
aI55
aI103
aF-3.0261652445771889
aI01
as(I11
I102
tp541
(lp542
I46
aI11
aI102
aF-0.23431989163255854
aI01
as(I62
I102
tp543
(lp544
I250
aI62
aI102
aF-0.65449189311933165
aI01
as(I36
I102
tp545
(lp546
I146
aI36
aI102
aF-0.2682273546235025
aI01
as(I43
I101
tp547
(lp548
I173
aI43
aI101
aF-1.6429455419716144
aI01
as(I13
I100
tp549
(lp550
I52
aI13
aI100
aF-1.0137210279394124
aI01
as(I71
I103
tp551
(lp552
I287
aI71
aI103
aF2.12723889969583
aI01
as(I45
I103
tp553
(lp554
I183
aI45
aI103
aF-1.4334301793232445
aI01
as(I99
I102
tp555
(lp556
I398
aI99
aI102
aF1.3002061348594096
aI01
as(I25
I102
tp557
(lp558
I102
aI25
aI102
aF-2.4947102620313548
aI01
as(I15
I102
tp559
(lp560
I62
aI15
aI102
aF1.2857805695323974
aI01
as(I22
I103
tp561
(lp562
I91
aI22
aI103
aF0.075164127291447905
aI01
as(I47
I101
tp563
(lp564
I189
aI47
aI101
aF3.799432998491719
aI01
as(I3
I100
tp565
(lp566
I12
aI3
aI100
aF-1.8572085698774294
aI01
as(I31
I102
tp567
(lp568
I126
aI31
aI102
aF1.4703048750617527
aI01
as(I28
I100
tp569
(lp570
I112
aI28
aI100
aF0.46219211891656198
aI01
as(I5
I102
tp571
(lp572
I22
aI5
aI102
aF0.098979590226443856
aI01
as(I12
I103
tp573
(lp574
I51
aI12
aI103
aF-0.44319588725480419
aI01
as(I84
I103
tp575
(lp576
I339
aI84
aI103
aF1.3819950322235537
aI01
as(I44
I100
tp577
(lp578
I176
aI44
aI100
aF-1.8378450675767364
aI01
as(I91
I100
tp579
(lp580
I364
aI91
aI100
aF-2.3490655245569596
aI01
as(I72
I101
tp581
(lp582
I289
aI72
aI101
aF2.8332807802612332
aI01
as(I93
I102
tp583
(lp584
I374
aI93
aI102
aF2.1306856945958002
aI01
as(I49
I101
tp585
(lp586
I197
aI49
aI101
aF-0.20845033832695137
aI01
as(I74
I103
tp587
(lp588
I299
aI74
aI103
aF-0.12807626837972549
aI01
as(I4
I101
tp589
(lp590
I17
aI4
aI101
aF1.4272362197519748
aI01
as(I51
I103
tp591
(lp592
I207
aI51
aI103
aF1.1116932470553906
aI01
as(I32
I102
tp593
(lp594
I130
aI32
aI102
aF-1.1557758629999233
aI01
as(I53
I101
tp595
(lp596
I213
aI53
aI101
aF-5.1127024649861763
aI01
as(I9
I100
tp597
(lp598
I36
aI9
aI100
aF0.046031765695735825
aI01
as(I67
I103
tp599
(lp600
I271
aI67
aI103
aF-1.8137460786668433
aI01
as(I34
I100
tp601
(lp602
I136
aI34
aI100
aF0.51832069983074502
aI01
as(I41
I103
tp603
(lp604
I167
aI41
aI103
aF-1.265067350458208
aI01
as(I92
I101
tp605
(lp606
I369
aI92
aI101
aF0.92758548950605058
aI01
as(I48
I102
tp607
(lp608
I194
aI48
aI102
aF3.3916269210609777
aI01
as(I69
I101
tp609
(lp610
I277
aI69
aI101
aF-1.190970625168837
aI01
as(I38
I102
tp611
(lp612
I154
aI38
aI102
aF-2.4677515428296859
aI01
as(I50
I100
tp613
(lp614
I200
aI50
aI100
aF-1.8031101833125931
aI01
as(I97
I100
tp615
(lp616
I388
aI97
aI100
aF-2.7527108222978907
aI01
as(I27
I102
tp617
(lp618
I110
aI27
aI102
aF1.2778840802876212
aI01
as(I24
I100
tp619
(lp620
I96
aI24
aI100
aF-2.6748581306777854
aI01
as(I1
I102
tp621
(lp622
I6
aI1
aI102
aF0.77987679982152747
aI01
as(I52
I102
tp623
(lp624
I210
aI52
aI102
aF0.70139602658657541
aI01
as(I8
I103
tp625
(lp626
I35
aI8
aI103
aF0.20208610074128208
aI01
as(I29
I100
tp627
(lp628
I116
aI29
aI100
aF1.0246544508045394
aI01
as(I26
I102
tp629
(lp630
I106
aI26
aI102
aF-1.7106235130743885
aI01
as(I40
I100
tp631
(lp632
I160
aI40
aI100
aF1.4810938010832557
aI01
as(I10
I101
tp633
(lp634
I41
aI10
aI101
aF4.8188850574584885
aI01
as(I23
I101
tp635
(lp636
I93
aI23
aI101
aF1.6666079737398378
aI01
as(I17
I102
tp637
(lp638
I70
aI17
aI102
aF-1.7369181858979243
aI01
as(I7
I102
tp639
(lp640
I30
aI7
aI102
aF1.4874697999270201
aI01
as(I42
I102
tp641
(lp642
I170
aI42
aI102
aF0.039342872270612235
aI01
as(I89
I102
tp643
(lp644
I358
aI89
aI102
aF1.0657387252933679
aI01
as(I96
I103
tp645
(lp646
I387
aI96
aI103
aF-3.3092283796090216
aI01
as(I39
I101
tp647
(lp648
I157
aI39
aI101
aF5.3995589363615268
aI01
as(I86
I103
tp649
(lp650
I347
aI86
aI103
aF-0.99058103478980897
aI01
as(I98
I101
tp651
(lp652
I393
aI98
aI101
aF1.5929506934377473
aI01
as(I95
I102
tp653
(lp654
I382
aI95
aI102
aF2.1151559873363563
aI01
as(I76
I103
tp655
(lp656
I307
aI76
aI103
aF-2.481352287643007
aI01
as(I0
I101
tp657
(lp658
I1
aI0
aI101
aF0.13240985499821969
aI01
as(I2
I103
tp659
(lp660
I11
aI2
aI103
aF-2.3394509007164275
aI01
as(I46
I100
tp661
(lp662
I184
aI46
aI100
aF1.3411208383462965
aI01
as(I88
I101
tp663
(lp664
I353
aI88
aI101
aF-3.249685613121418
aI01
as(I65
I101
tp665
(lp666
I261
aI65
aI101
aF-1.0266639614988358
aI01
as(I90
I103
tp667
(lp668
I363
aI90
aI103
aF0.63319095368440093
aI01
as(I62
I100
tp669
(lp670
I248
aI62
aI100
aF-1.5419959867411712
aI01
as(I87
I100
tp671
(lp672
I348
aI87
aI100
aF0.32091521104514048
aI01
as(I43
I103
tp673
(lp674
I175
aI43
aI103
aF-0.60100899690934428
aI01
as(I68
I101
tp675
(lp676
I273
aI68
aI101
aF1.1365809292179563
aI01
as(I45
I101
tp677
(lp678
I181
aI45
aI101
aF-3.7272173870201217
aI01
as(I25
I100
tp679
(lp680
I100
aI25
aI100
aF-3.2786103149318087
aI01
as(I22
I101
tp681
(lp682
I89
aI22
aI101
aF1.251549258769338
aI01
as(I19
I101
tp683
(lp684
I77
aI19
aI101
aF4.1942803452930209
aI01
as(I47
I103
tp685
(lp686
I191
aI47
aI103
aF-1.8510592817708997
aI01
as(I3
I102
tp687
(lp688
I14
aI3
aI102
aF-0.50190021574235333
aI01
as(I54
I102
tp689
(lp690
I218
aI54
aI102
aF1.2088469125319596
aI01
as(I21
I103
tp691
(lp692
I87
aI21
aI103
aF0.71290335974005881
aI01
as(I28
I102
tp693
(lp694
I114
aI28
aI102
aF1.6490230502290788
aI01
as(I35
I101
tp695
(lp696
I141
aI35
aI101
aF0.80851880013900312
aI01
as(I5
I100
tp697
(lp698
I20
aI5
aI100
aF1.8375066749359705
aI01
as(I16
I100
tp699
(lp700
I64
aI16
aI100
aF4.779761111675537
aI01
as(I37
I103
tp701
(lp702
I151
aI37
aI103
aF-0.39432085083873258
aI01
as(I44
I102
tp703
(lp704
I178
aI44
aI102
aF1.5363186369464445
aI01
as(I91
I102
tp705
(lp706
I366
aI91
aI102
aF0.80735783174516496
aI01
as(I18
I102
tp707
(lp708
I74
aI18
aI102
aF2.6687724684779441
aI01
as(I72
I103
tp709
(lp710
I291
aI72
aI103
aF1.67441078363018
aI01
as(I93
I100
tp711
(lp712
I372
aI93
aI100
aF2.2232148547149047
aI01
as(I74
I101
tp713
(lp714
I297
aI74
aI101
aF-2.9233570270150087
aI01
as(I81
I102
tp715
(lp716
I326
aI81
aI102
aF-2.4341008955332502
aI01
as(I14
I103
tp717
(lp718
I59
aI14
aI103
aF0.010477637430826608
aI01
as(I20
I100
tp719
(lp720
I80
aI20
aI100
aF0.26677135647186256
aI01
as(I4
I103
tp721
(lp722
I19
aI4
aI103
aF0.079504835794210083
aI01
as(I83
I100
tp723
(lp724
I332
aI83
aI100
aF1.2316255145944048
aI01
as(I64
I101
tp725
(lp726
I257
aI64
aI101
aF-1.2966781579890319
aI01
as(I85
I102
tp727
(lp728
I342
aI85
aI102
aF-3.3047425554238492
aI01
as(I41
I101
tp729
(lp730
I165
aI41
aI101
aF1.3844063848961818
aI01
as(I92
I103
tp731
(lp732
I371
aI92
aI103
aF1.1839261376678449
aI01
as(I66
I103
tp733
(lp734
I267
aI66
aI103
aF2.6899907319571543
aI01
as(I38
I100
tp735
(lp736
I152
aI38
aI100
aF0.91889120373635835
aI01
as(I80
I101
tp737
(lp738
I321
aI80
aI101
aF2.2409760960969027
aI01
as(I63
I100
tp739
(lp740
I252
aI63
aI100
aF3.4504671826881919
aI01
as(I82
I103
tp741
(lp742
I331
aI82
aI103
aF-1.3094003547465098
aI01
as(I24
I102
tp743
(lp744
I98
aI24
aI102
aF2.6353019523585872
aI01
as(I1
I100
tp745
(lp746
I4
aI1
aI100
aF-0.22164657175116115
aI01
as(I26
I100
tp747
(lp748
I104
aI26
aI100
aF2.6242244919329099
aI01
as(I33
I103
tp749
(lp750
I135
aI33
aI103
aF1.33890006015457
aI01
as(I40
I102
tp751
(lp752
I162
aI40
aI102
aF0.51078821209007652
aI01
as(I23
I103
tp753
(lp754
I95
aI23
aI103
aF-1.8894893827959158
aI01
as(I17
I100
tp755
(lp756
I68
aI17
aI100
aF0.054579226172490565
aI01
as(I30
I102
tp757
(lp758
I122
aI30
aI102
aF-2.5060288174089087
aI01
as(I42
I100
tp759
(lp760
I168
aI42
aI100
aF-0.44041933256512095
aI01
as(I89
I100
tp761
(lp762
I356
aI89
aI100
aF1.5448373194669454
aI01
as(I11
I101
tp763
(lp764
I45
aI11
aI101
aF-3.2608939224947928
aI01
as(I39
I103
tp765
(lp766
I159
aI39
aI103
aF-0.25561060120450019
aI01
as(I86
I101
tp767
(lp768
I345
aI86
aI101
aF-1.852416713883376
aI01
as(I13
I103
tp769
(lp770
I55
aI13
aI103
aF3.216690746438279
aI01
as(I99
I101
tp771
(lp772
I397
aI99
aI101
aF0.63781927937492444
aI01
as(I0
I103
tp773
(lp774
I3
aI0
aI103
aF-1.1235840848860361
aI01
as(I2
I101
tp775
(lp776
I9
aI2
aI101
aF1.4819910066977071
aI01
as(I15
I101
tp777
(lp778
I61
aI15
aI101
aF0.89515017130358565
aI01
as(I6
I103
tp779
(lp780
I27
aI6
aI103
aF-2.0633569327518471
aI01
as(I88
I103
tp781
(lp782
I355
aI88
aI103
aF-1.3155420354526761
aI01
as(I31
I101
tp783
(lp784
I125
aI31
aI101
aF2.4288384559933438
aI01
as(I78
I103
tp785
(lp786
I315
aI78
aI103
aF2.8103293653987187
aI01
as(I90
I101
tp787
(lp788
I361
aI90
aI101
aF3.4245740581237247
aI01
as(I12
I100
tp789
(lp790
I48
aI12
aI100
aF0.8634949463944257
aI01
as(I59
I100
tp791
(lp792
I236
aI59
aI100
aF0.69413141866910355
aI01
as(I87
I102
tp793
(lp794
I350
aI87
aI102
aF3.332695417208372
aI01
as(I84
I100
tp795
(lp796
I336
aI84
aI100
aF-2.4163245450207489
aI01
as(I94
I103
tp797
(lp798
I379
aI94
aI103
aF-1.2869673895591742
aI01
as(I61
I102
tp799
(lp800
I246
aI61
aI102
aF3.7245919119887314
aI01
as(I68
I103
tp801
(lp802
I275
aI68
aI103
aF-2.7157150550903193
aI01
as(I75
I100
tp803
(lp804
I300
aI75
aI100
aF0.33436524814064816
aI01
as(I77
I102
tp805
(lp806
I310
aI77
aI102
aF-0.80525759835338051
aI01
as(I19
I103
tp807
(lp808
I79
aI19
aI103
aF-1.0903065231434899
aI01
as(I54
I100
tp809
(lp810
I216
aI54
aI100
aF-1.2929126458738154
aI01
as(I21
I101
tp811
(lp812
I85
aI21
aI101
aF0.18734784852574232
aI01
as(I79
I100
tp813
(lp814
I316
aI79
aI100
aF-0.28436647418023786
aI01
as(I35
I103
tp815
(lp816
I143
aI35
aI103
aF-0.68703757822119127
aI01
as(I9
I103
tp817
(lp818
I39
aI9
aI103
aF-4.3497946515953672
aI01
as(I60
I101
tp819
(lp820
I241
aI60
aI101
aF1.8062597413659114
aI01
as(I16
I102
tp821
(lp822
I66
aI16
aI102
aF1.2140609295321514
aI01
as(I37
I101
tp823
(lp824
I149
aI37
aI101
aF0.22931340874872699
aI01
as(I18
I100
tp825
(lp826
I72
aI18
aI100
aF-4.7153753932992259
aI01
as(I97
I103
tp827
(lp828
I391
aI97
aI103
aF1.2691226982588162
aI01
as(I81
I100
tp829
(lp830
I324
aI81
aI100
aF0.17546440224318105
aI01
as(I14
I101
tp831
(lp832
I57
aI14
aI101
aF-1.1893201702368874
aI01
as(I20
I102
tp833
(lp834
I82
aI20
aI102
aF-0.74208623762743742
aI01
as(I27
I101
tp835
(lp836
I109
aI27
aI101
aF0.69745181467671635
aI01
as(I8
I100
tp837
(lp838
I32
aI8
aI100
aF-0.54978622861057258
aI01
as(I29
I103
tp839
(lp840
I119
aI29
aI103
aF-2.0435474679409653
aI01
as(I83
I102
tp841
(lp842
I334
aI83
aI102
aF-1.7258933530753831
aI01
as(I10
I102
tp843
(lp844
I42
aI10
aI102
aF0.58666162667880428
aI01
as(I57
I102
tp845
(lp846
I230
aI57
aI102
aF-4.3358099944668949
aI01
as(I64
I103
tp847
(lp848
I259
aI64
aI103
aF2.3094428343667053
aI01
as(I85
I100
tp849
(lp850
I340
aI85
aI100
aF1.1772613422543552
aI01
as(I7
I101
tp851
(lp852
I29
aI7
aI101
aF-2.7218468385690464
aI01
as(I96
I100
tp853
(lp854
I384
aI96
aI100
aF0.73438651671200217
aI01
as(I66
I101
tp855
(lp856
I265
aI66
aI101
aF3.0228330885685089
aI01
as(I73
I102
tp857
(lp858
I294
aI73
aI102
aF0.7921937962605512
aI01
as(I80
I103
tp859
(lp860
I323
aI80
aI103
aF1.8314389567487377
aI01
assS'max_nodes'
p861
Finf
sS'node_genes'
p862
(lp863
(lp864
F0
aS'linear'
p865
aF0
aF4.9242730000000003
aI0
aa(lp866
F1024
ag865
aF0
aF4.9242730000000003
aI0
aa(lp867
F2048
ag865
aF0
aF4.9242730000000003
aI0
aa(lp868
F3072
ag865
aF0
aF4.9242730000000003
aI0
aa(lp869
F4096
ag865
aF0
aF4.9242730000000003
aI0
aa(lp870
F5120
ag865
aF0
aF4.9242730000000003
aI0
aa(lp871
F6144
ag865
aF0
aF4.9242730000000003
aI0
aa(lp872
F7168
ag865
aF0
aF4.9242730000000003
aI0
aa(lp873
F8192
ag865
aF0
aF4.9242730000000003
aI0
aa(lp874
F9216
ag865
aF0
aF4.9242730000000003
aI0
aa(lp875
F10240
ag865
aF0
aF4.9242730000000003
aI0
aa(lp876
F11264
ag865
aF0
aF4.9242730000000003
aI0
aa(lp877
F12288
ag865
aF0
aF4.9242730000000003
aI0
aa(lp878
F13312
ag865
aF0
aF4.9242730000000003
aI0
aa(lp879
F14336
ag865
aF0
aF4.9242730000000003
aI0
aa(lp880
F15360
ag865
aF0
aF4.9242730000000003
aI0
aa(lp881
F16384
ag865
aF0
aF4.9242730000000003
aI0
aa(lp882
F17408
ag865
aF0
aF4.9242730000000003
aI0
aa(lp883
F18432
ag865
aF0
aF4.9242730000000003
aI0
aa(lp884
F19456
ag865
aF0
aF4.9242730000000003
aI0
aa(lp885
F20480
ag865
aF0
aF4.9242730000000003
aI0
aa(lp886
F21504
ag865
aF0
aF4.9242730000000003
aI0
aa(lp887
F22528
ag865
aF0
aF4.9242730000000003
aI0
aa(lp888
F23552
ag865
aF0
aF4.9242730000000003
aI0
aa(lp889
F24576
ag865
aF0
aF4.9242730000000003
aI0
aa(lp890
F25600
ag865
aF0
aF4.9242730000000003
aI0
aa(lp891
F26624
ag865
aF0
aF4.9242730000000003
aI0
aa(lp892
F27648
ag865
aF0
aF4.9242730000000003
aI0
aa(lp893
F28672
ag865
aF0
aF4.9242730000000003
aI0
aa(lp894
F29696
ag865
aF0
aF4.9242730000000003
aI0
aa(lp895
F30720
ag865
aF0
aF4.9242730000000003
aI0
aa(lp896
F31744
ag865
aF0
aF4.9242730000000003
aI0
aa(lp897
F32768
ag865
aF0
aF4.9242730000000003
aI0
aa(lp898
F33792
ag865
aF0
aF4.9242730000000003
aI0
aa(lp899
F34816
ag865
aF0
aF4.9242730000000003
aI0
aa(lp900
F35840
ag865
aF0
aF4.9242730000000003
aI0
aa(lp901
F36864
ag865
aF0
aF4.9242730000000003
aI0
aa(lp902
F37888
ag865
aF0
aF4.9242730000000003
aI0
aa(lp903
F38912
ag865
aF0
aF4.9242730000000003
aI0
aa(lp904
F39936
ag865
aF0
aF4.9242730000000003
aI0
aa(lp905
F40960
ag865
aF0
aF4.9242730000000003
aI0
aa(lp906
F41984
ag865
aF0
aF4.9242730000000003
aI0
aa(lp907
F43008
ag865
aF0
aF4.9242730000000003
aI0
aa(lp908
F44032
ag865
aF0
aF4.9242730000000003
aI0
aa(lp909
F45056
ag865
aF0
aF4.9242730000000003
aI0
aa(lp910
F46080
ag865
aF0
aF4.9242730000000003
aI0
aa(lp911
F47104
ag865
aF0
aF4.9242730000000003
aI0
aa(lp912
F48128
ag865
aF0
aF4.9242730000000003
aI0
aa(lp913
F49152
ag865
aF0
aF4.9242730000000003
aI0
aa(lp914
F50176
ag865
aF0
aF4.9242730000000003
aI0
aa(lp915
F51200
ag865
aF0
aF4.9242730000000003
aI0
aa(lp916
F52224
ag865
aF0
aF4.9242730000000003
aI0
aa(lp917
F53248
ag865
aF0
aF4.9242730000000003
aI0
aa(lp918
F54272
ag865
aF0
aF4.9242730000000003
aI0
aa(lp919
F55296
ag865
aF0
aF4.9242730000000003
aI0
aa(lp920
F56320
ag865
aF0
aF4.9242730000000003
aI0
aa(lp921
F57344
ag865
aF0
aF4.9242730000000003
aI0
aa(lp922
F58368
ag865
aF0
aF4.9242730000000003
aI0
aa(lp923
F59392
ag865
aF0
aF4.9242730000000003
aI0
aa(lp924
F60416
ag865
aF0
aF4.9242730000000003
aI0
aa(lp925
F61440
ag865
aF0
aF4.9242730000000003
aI0
aa(lp926
F62464
ag865
aF0
aF4.9242730000000003
aI0
aa(lp927
F63488
ag865
aF0
aF4.9242730000000003
aI0
aa(lp928
F64512
ag865
aF0
aF4.9242730000000003
aI0
aa(lp929
F65536
ag865
aF0
aF4.9242730000000003
aI0
aa(lp930
F66560
ag865
aF0
aF4.9242730000000003
aI0
aa(lp931
F67584
ag865
aF0
aF4.9242730000000003
aI0
aa(lp932
F68608
ag865
aF0
aF4.9242730000000003
aI0
aa(lp933
F69632
ag865
aF0
aF4.9242730000000003
aI0
aa(lp934
F70656
ag865
aF0
aF4.9242730000000003
aI0
aa(lp935
F71680
ag865
aF0
aF4.9242730000000003
aI0
aa(lp936
F72704
ag865
aF0
aF4.9242730000000003
aI0
aa(lp937
F73728
ag865
aF0
aF4.9242730000000003
aI0
aa(lp938
F74752
ag865
aF0
aF4.9242730000000003
aI0
aa(lp939
F75776
ag865
aF0
aF4.9242730000000003
aI0
aa(lp940
F76800
ag865
aF0
aF4.9242730000000003
aI0
aa(lp941
F77824
ag865
aF0
aF4.9242730000000003
aI0
aa(lp942
F78848
ag865
aF0
aF4.9242730000000003
aI0
aa(lp943
F79872
ag865
aF0
aF4.9242730000000003
aI0
aa(lp944
F80896
ag865
aF0
aF4.9242730000000003
aI0
aa(lp945
F81920
ag865
aF0
aF4.9242730000000003
aI0
aa(lp946
F82944
ag865
aF0
aF4.9242730000000003
aI0
aa(lp947
F83968
ag865
aF0
aF4.9242730000000003
aI0
aa(lp948
F84992
ag865
aF0
aF4.9242730000000003
aI0
aa(lp949
F86016
ag865
aF0
aF4.9242730000000003
aI0
aa(lp950
F87040
ag865
aF0
aF4.9242730000000003
aI0
aa(lp951
F88064
ag865
aF0
aF4.9242730000000003
aI0
aa(lp952
F89088
ag865
aF0
aF4.9242730000000003
aI0
aa(lp953
F90112
ag865
aF0
aF4.9242730000000003
aI0
aa(lp954
F91136
ag865
aF0
aF4.9242730000000003
aI0
aa(lp955
F92160
ag865
aF0
aF4.9242730000000003
aI0
aa(lp956
F93184
ag865
aF0
aF4.9242730000000003
aI0
aa(lp957
F94208
ag865
aF0
aF4.9242730000000003
aI0
aa(lp958
F95232
ag865
aF0
aF4.9242730000000003
aI0
aa(lp959
F96256
ag865
aF0
aF4.9242730000000003
aI0
aa(lp960
F97280
ag865
aF0
aF4.9242730000000003
aI0
aa(lp961
F98304
ag865
aF0
aF4.9242730000000003
aI0
aa(lp962
F99328
ag865
aF0
aF4.9242730000000003
aI0
aa(lp963
F100352
ag865
aF0
aF4.9242730000000003
aI0
aa(lp964
F101376
ag865
aF0
aF4.9242730000000003
aI0
aa(lp965
F102400
ag865
aF0
aF4.9242730000000003
aI9223372036854775807
aa(lp966
F103424
ag865
aF0
aF4.9242730000000003
aI9223372036854775807
aa(lp967
F104448
ag865
aF0
aF4.9242730000000003
aI9223372036854775807
aa(lp968
F105472
ag865
aF0
aF4.9242730000000003
aI9223372036854775807
aasS'prob_reenable_parent'
p969
F0.25
sS'distance_weight'
p970
F0.40000000000000002
sS'prob_reenable_conn'
p971
F0.01
sS'prob_add_conn'
p972
F0.29999999999999999
sS'inputs'
p973
I100
sS'prob_mutate_bias'
p974
F0.20000000000000001
sS'outputs'
p975
I4
sS'prob_disable_conn'
p976
F0.01
sS'prob_mutate_response'
p977
F0
sS'types'
p978
(lp979
g865
asS'response_default'
p980
F4.9242730000000003
sS'prob_mutate_type'
p981
F0.20000000000000001
sS'initial_weight_stdev'
p982
F2
sS'prob_reset_weight'
p983
F0.10000000000000001
sS'stdev_mutate_bias'
p984
F0.5
sS'max_depth'
p985
NsS'distance_excess'
p986
F1
sS'stdev_mutate_weight'
p987
F1.5
sS'prob_mutate_weight'
p988
F0.80000000000000004
sbasS'timeList'
p989
(lp990
F1.610908031463623
as(dp991
S'QmapList'
p992
(lp993
cnumpy.core.multiarray
_reconstruct
p994
(cnumpy
ndarray
p995
(I0
tS'b'
tRp996
(I1
(I10
I10
tg12
(S'U2'
I0
I1
tRp997
(I3
S'<'
NNNI8
I4
I8
tbI00
S'1\x00\x00\x00\x00\x00\x00\x001\x00\x00\x00\x00\x00\x00\x001\x00\x00\x00\x00\x00\x00\x000\x00\x00\x00\x00\x00\x00\x000\x00\x00\x00\x00\x00\x00\x001\x00\x00\x00\x00\x00\x00\x000\x00\x00\x00\x00\x00\x00\x001\x00\x00\x00\x00\x00\x00\x001\x00\x00\x00\x00\x00\x00\x001\x00\x00\x00\x00\x00\x00\x001\x00\x00\x00\x00\x00\x00\x001\x00\x00\x00\x00\x00\x00\x000\x00\x00\x00\x00\x00\x00\x001\x00\x00\x00\x00\x00\x00\x001\x00\x00\x00\x00\x00\x00\x000\x00\x00\x00\x00\x00\x00\x000\x00\x00\x00\x00\x00\x00\x001\x00\x00\x00\x00\x00\x00\x001\x00\x00\x00\x00\x00\x00\x001\x00\x00\x00\x00\x00\x00\x001\x00\x00\x00\x00\x00\x00\x000\x00\x00\x00\x00\x00\x00\x001\x00\x00\x00\x00\x00\x00\x001\x00\x00\x00\x00\x00\x00\x000\x00\x00\x00\x00\x00\x00\x001\x00\x00\x00\x00\x00\x00\x001\x00\x00\x00\x00\x00\x00\x001\x00\x00\x00\x00\x00\x00\x001\x00\x00\x00\x00\x00\x00\x001\x00\x00\x00\x00\x00\x00\x001\x00\x00\x00\x00\x00\x00\x001\x00\x00\x00\x00\x00\x00\x000\x00\x00\x00\x00\x00\x00\x001\x00\x00\x00\x00\x00\x00\x001\x00\x00\x00\x00\x00\x00\x001\x00\x00\x00\x00\x00\x00\x001\x00\x00\x00\x00\x00\x00\x001\x00\x00\x00\x00\x00\x00\x001\x00\x00\x00\x00\x00\x00\x001\x00\x00\x00\x00\x00\x00\x001\x00\x00\x00\x00\x00\x00\x000\x00\x00\x00\x00\x00\x00\x001\x00\x00\x00\x00\x00\x00\x001\x00\x00\x00\x00\x00\x00\x001\x00\x00\x00\x00\x00\x00\x001\x00\x00\x00\x00\x00\x00\x000\x00\x00\x00\x00\x00\x00\x001\x00\x00\x00\x00\x00\x00\x001\x00\x00\x00\x00\x00\x00\x001\x00\x00\x00\x00\x00\x00\x000\x00\x00\x00\x00\x00\x00\x001\x00\x00\x00\x00\x00\x00\x000\x00\x00\x00\x00\x00\x00\x001\x00\x00\x00\x00\x00\x00\x001\x00\x00\x00\x00\x00\x00\x001\x00\x00\x00\x00\x00\x00\x000\x00\x00\x00\x00\x00\x00\x001\x00\x00\x00\x00\x00\x00\x000\x00\x00\x00\x00\x00\x00\x001\x00\x00\x00\x00\x00\x00\x000\x00\x00\x00\x00\x00\x00\x001\x00\x00\x00\x00\x00\x00\x001\x00\x00\x00\x00\x00\x00\x001\x00\x00\x00\x00\x00\x00\x000\x00\x00\x00\x00\x00\x00\x001\x00\x00\x00\x00\x00\x00\x001\x00\x00\x00\x00\x00\x00\x001\x00\x00\x00\x00\x00\x00\x001\x00\x00\x00\x00\x00\x00\x001\x00\x00\x00\x00\x00\x00\x000\x00\x00\x00\x00\x00\x00\x001\x00\x00\x00\x00\x00\x00\x001\x00\x00\x00\x00\x00\x00\x001\x00\x00\x00\x00\x00\x00\x000\x00\x00\x00\x00\x00\x00\x000\x00\x00\x00\x00\x00\x00\x001\x00\x00\x00\x00\x00\x00\x001\x00\x00\x00\x00\x00\x00\x001\x00\x00\x00\x00\x00\x00\x001\x00\x00\x00\x00\x00\x00\x001\x00\x00\x00\x00\x00\x00\x001\x00\x00\x00\x00\x00\x00\x001\x00\x00\x00\x00\x00\x00\x001\x00\x00\x00\x00\x00\x00\x000\x00\x00\x00\x00\x00\x00\x000\x00\x00\x00\x00\x00\x00\x001\x00\x00\x00\x00\x00\x00\x000\x00\x00\x00\x00\x00\x00\x001\x00\x00\x00\x00\x00\x00\x001\x00\x00\x00\x00\x00\x00\x001\x00\x00\x00\x00\x00\x00\x000\x00\x00\x00\x00\x00\x00\x001\x00\x00\x00\x00\x00\x00\x001\x00\x00\x00\x00\x00\x00\x001\x00\x00\x00\x00\x00\x00\x000\x00\x00\x00\x00\x00\x00\x000\x00\x00\x00\x00\x00\x00\x001\x00\x00\x00\x00\x00\x00\x000\x00\x00\x00\x00\x00\x00\x001\x00\x00\x00\x00\x00\x00\x00'
tbasS'lossList'
p998
(lp999
g11
(g13
S'fff\xcd\x98\xc4\xa2?'
tRp1000
asg989
(lp1001
F3.8390491008758545
asg24
I00
sS'accuracyList'
p1002
(lp1003
F0
asg3
g4
stp1004
a(lp1005
((dp1006
g3
S'size4-g1_randPlayer_0th_try'
p1007
sg5
g6
(g7
tRp1008
g24
(lp1009
I00
asS'nodes_avg'
p1010
(lp1011
g11
(g13
S'\x00\x00\x00\x00\x00\x00\x1c@'
tRp1012
asS'score_min'
p1013
(lp1014
g11
(g13
S'\x00\x00\x00\x00\x00\x00I\xc0'
tRp1015
asS'fitness_max'
p1016
(lp1017
g11
(g13
S'\xb8\x1e\x85\xebQ\xb8\xbe?'
tRp1018
asS'nodes_max'
p1019
(lp1020
g11
(g12
(S'i8'
I0
I1
tRp1021
(I3
S'<'
NNNI-1
I-1
I0
tbS'\x07\x00\x00\x00\x00\x00\x00\x00'
tRp1022
asS'score_avg'
p1023
(lp1024
g11
(g13
S'L7\x89A`\x8dH\xc0'
tRp1025
asS'fitness_avg'
p1026
(lp1027
g11
(g13
S'\xb6\x1e\x85\xebQ\xb8\x8e?'
tRp1028
asS'score_max'
p1029
(lp1030
g11
(g13
S'R\xb8\x1e\x85\xebqE\xc0'
tRp1031
asS'fitness_min'
p1032
(lp1033
g11
(g13
S'\x00\x00\x00\x00\x00\x00\x00\x00'
tRp1034
asS'nodes_min'
p1035
(lp1036
g11
(g1021
S'\x07\x00\x00\x00\x00\x00\x00\x00'
tRp1037
assg41
(lp1038
g43
(g44
g45
NtRp1039
(dp1040
g48
I00
sg49
F0.5
sg50
I01
sg51
F0.029999999999999999
sg52
(F-3
F3
tp1041
sg5
(dp1042
S'nodes'
p1043
I7
sg56
F-42.890000000000001
sg57
F0.12
ssg58
F1
sg59
(dp1044
(I2
I6
tp1045
(lp1046
I2
aI2
aI6
aF0.33541358439744851
aI01
as(I4
I6
tp1047
(lp1048
I4
aI4
aI6
aF1.3086142230178859
aI01
as(I5
I6
tp1049
(lp1050
I5
aI5
aI6
aF0.28812805019012427
aI01
as(I0
I6
tp1051
(lp1052
I0
aI0
aI6
aF-0.25093175434262077
aI01
as(I1
I6
tp1053
(lp1054
I1
aI1
aI6
aF0.10538830721081384
aI01
as(I3
I6
tp1055
(lp1056
I3
aI3
aI6
aF0.79433676857777202
aI01
assg861
Finf
sg862
(lp1057
(lp1058
F0
aS'sin'
p1059
aF0
aF4.9242730000000003
aI0
aa(lp1060
F1024
ag1059
aF0
aF4.9242730000000003
aI0
aa(lp1061
F2048
ag1059
aF0
aF4.9242730000000003
aI0
aa(lp1062
F3072
ag1059
aF0
aF4.9242730000000003
aI0
aa(lp1063
F4096
ag1059
aF0
aF4.9242730000000003
aI0
aa(lp1064
F5120
ag1059
aF0
aF4.9242730000000003
aI0
aa(lp1065
F6144
aS'sigmoid'
p1066
aF0
aF4.9242730000000003
aI9223372036854775807
aasg969
F0.25
sg970
F0.40000000000000002
sg971
F0.01
sg972
F0.10000000000000001
sg973
I6
sg974
F0.20000000000000001
sg975
I1
sg976
F0.01
sg977
F0
sg978
(lp1067
g1059
aS'bound'
p1068
ag865
aS'gauss'
p1069
ag1066
aS'abs'
p1070
asg980
F4.9242730000000003
sg981
F0.20000000000000001
sg982
F2
sg983
F0.10000000000000001
sg984
F0.5
sg985
Nsg986
F1
sg987
F1.5
sg988
F0.80000000000000004
sbasg989
(lp1071
F105.02800893783569
as(dp1072
g992
(lp1073
g994
(g995
(I0
tS'b'
tRp1074
(I1
(I10
I10
tg12
(S'U2'
I0
I1
tRp1075
(I3
S'<'
NNNI8
I4
I8
tbI00
S'3\x00\x00\x00\x00\x00\x00\x003\x00\x00\x00\x00\x00\x00\x003\x00\x00\x00\x00\x00\x00\x003\x00\x00\x00\x00\x00\x00\x003\x00\x00\x00\x00\x00\x00\x003\x00\x00\x00\x00\x00\x00\x003\x00\x00\x00\x00\x00\x00\x003\x00\x00\x00\x00\x00\x00\x003\x00\x00\x00\x00\x00\x00\x003\x00\x00\x00\x00\x00\x00\x003\x00\x00\x00\x00\x00\x00\x003\x00\x00\x00\x00\x00\x00\x003\x00\x00\x00\x00\x00\x00\x003\x00\x00\x00\x00\x00\x00\x003\x00\x00\x00\x00\x00\x00\x003\x00\x00\x00\x00\x00\x00\x003\x00\x00\x00\x00\x00\x00\x003\x00\x00\x00\x00\x00\x00\x003\x00\x00\x00\x00\x00\x00\x003\x00\x00\x00\x00\x00\x00\x003\x00\x00\x00\x00\x00\x00\x003\x00\x00\x00\x00\x00\x00\x003\x00\x00\x00\x00\x00\x00\x003\x00\x00\x00\x00\x00\x00\x003\x00\x00\x00\x00\x00\x00\x003\x00\x00\x00\x00\x00\x00\x003\x00\x00\x00\x00\x00\x00\x003\x00\x00\x00\x00\x00\x00\x003\x00\x00\x00\x00\x00\x00\x003\x00\x00\x00\x00\x00\x00\x003\x00\x00\x00\x00\x00\x00\x003\x00\x00\x00\x00\x00\x00\x003\x00\x00\x00\x00\x00\x00\x003\x00\x00\x00\x00\x00\x00\x003\x00\x00\x00\x00\x00\x00\x003\x00\x00\x00\x00\x00\x00\x003\x00\x00\x00\x00\x00\x00\x003\x00\x00\x00\x00\x00\x00\x003\x00\x00\x00\x00\x00\x00\x003\x00\x00\x00\x00\x00\x00\x003\x00\x00\x00\x00\x00\x00\x003\x00\x00\x00\x00\x00\x00\x003\x00\x00\x00\x00\x00\x00\x003\x00\x00\x00\x00\x00\x00\x003\x00\x00\x00\x00\x00\x00\x003\x00\x00\x00\x00\x00\x00\x003\x00\x00\x00\x00\x00\x00\x003\x00\x00\x00\x00\x00\x00\x003\x00\x00\x00\x00\x00\x00\x003\x00\x00\x00\x00\x00\x00\x003\x00\x00\x00\x00\x00\x00\x003\x00\x00\x00\x00\x00\x00\x003\x00\x00\x00\x00\x00\x00\x003\x00\x00\x00\x00\x00\x00\x003\x00\x00\x00\x00\x00\x00\x003\x00\x00\x00\x00\x00\x00\x003\x00\x00\x00\x00\x00\x00\x003\x00\x00\x00\x00\x00\x00\x003\x00\x00\x00\x00\x00\x00\x003\x00\x00\x00\x00\x00\x00\x003\x00\x00\x00\x00\x00\x00\x003\x00\x00\x00\x00\x00\x00\x003\x00\x00\x00\x00\x00\x00\x003\x00\x00\x00\x00\x00\x00\x003\x00\x00\x00\x00\x00\x00\x003\x00\x00\x00\x00\x00\x00\x003\x00\x00\x00\x00\x00\x00\x003\x00\x00\x00\x00\x00\x00\x003\x00\x00\x00\x00\x00\x00\x003\x00\x00\x00\x00\x00\x00\x003\x00\x00\x00\x00\x00\x00\x003\x00\x00\x00\x00\x00\x00\x003\x00\x00\x00\x00\x00\x00\x003\x00\x00\x00\x00\x00\x00\x003\x00\x00\x00\x00\x00\x00\x003\x00\x00\x00\x00\x00\x00\x003\x00\x00\x00\x00\x00\x00\x003\x00\x00\x00\x00\x00\x00\x003\x00\x00\x00\x00\x00\x00\x003\x00\x00\x00\x00\x00\x00\x003\x00\x00\x00\x00\x00\x00\x003\x00\x00\x00\x00\x00\x00\x003\x00\x00\x00\x00\x00\x00\x003\x00\x00\x00\x00\x00\x00\x003\x00\x00\x00\x00\x00\x00\x003\x00\x00\x00\x00\x00\x00\x003\x00\x00\x00\x00\x00\x00\x003\x00\x00\x00\x00\x00\x00\x003\x00\x00\x00\x00\x00\x00\x003\x00\x00\x00\x00\x00\x00\x003\x00\x00\x00\x00\x00\x00\x003\x00\x00\x00\x00\x00\x00\x003\x00\x00\x00\x00\x00\x00\x003\x00\x00\x00\x00\x00\x00\x003\x00\x00\x00\x00\x00\x00\x003\x00\x00\x00\x00\x00\x00\x003\x00\x00\x00\x00\x00\x00\x003\x00\x00\x00\x00\x00\x00\x003\x00\x00\x00\x00\x00\x00\x003\x00\x00\x00\x00\x00\x00\x00'
tbasg998
(lp1076
g11
(g13
S"fff\xd8'O\x9d?"
tRp1077
asg989
(lp1078
F5.5436341762542725
asg24
I00
sg1002
(lp1079
F0
asg3
g1007
stp1080
at.